target datalayout = "e-m:e-p270:32:32-p271:32:32-p272:64:64-i64:64-i128:128-f80:128-n8:16:32:64-S128"
target triple = "x86_64-pc-linux-gnu"

%struct.Agraph_s = type { %struct.Agobj_s, %struct.Agdesc_s, %struct._dtlink_s, %struct._dtlink_s, ptr, ptr, ptr, ptr, ptr, ptr, ptr, ptr, ptr }
%struct.Agobj_s = type { %struct.Agtag_s, ptr }
%struct.Agtag_s = type { i32, i64 }
%struct.Agdesc_s = type { i8, [3 x i8] }
%struct._dtlink_s = type { ptr, %union.anon }
%union.anon = type { ptr }
%struct.Agclos_s = type { %struct.Agdisc_s, %struct.Agdstate_s, ptr, [3 x i64], ptr, [3 x ptr], [3 x ptr] }
%struct.Agdisc_s = type { ptr, ptr }
%struct.Agdstate_s = type { ptr }
%struct.Agiodisc_s = type { ptr, ptr, ptr }
%struct._dt_s = type { ptr, ptr, ptr, ptr, i32, ptr, ptr, ptr }
%struct.Agsym_s = type { %struct._dtlink_s, ptr, ptr, i32, i8, i8, i8 }

@Level = internal global i32 0, align 4
@.str.18 = private unnamed_addr constant [2 x i8] c"\09\00", align 1
@.str.19 = private unnamed_addr constant [3 x i8] c" [\00", align 1
@.str.20 = private unnamed_addr constant [3 x i8] c",\0A\00", align 1
@.str.21 = private unnamed_addr constant [2 x i8] c"=\00", align 1
@.str.22 = private unnamed_addr constant [2 x i8] c"\0A\00", align 1
@.str.23 = private unnamed_addr constant [4 x i8] c"];\0A\00", align 1

; Function Attrs: nounwind uwtable
define internal i32 @write_canonstr(ptr noundef %0, ptr noundef %1, ptr noundef %2) #0 {
  %4 = alloca ptr, align 8
  %5 = alloca ptr, align 8
  %6 = alloca ptr, align 8
  %7 = alloca ptr, align 8
  %8 = alloca i32, align 4
  store ptr %0, ptr %4, align 8
  store ptr %1, ptr %5, align 8
  store ptr %2, ptr %6, align 8
  %9 = load ptr, ptr %4, align 8
  %10 = load ptr, ptr %6, align 8
  %11 = call ptr @agstrdup(ptr noundef %9, ptr noundef %10)
  store ptr %11, ptr %7, align 8
  %12 = load ptr, ptr %4, align 8
  %13 = load ptr, ptr %5, align 8
  %14 = load ptr, ptr %7, align 8
  %15 = call i32 @_write_canonstr(ptr noundef %12, ptr noundef %13, ptr noundef %14, i1 noundef zeroext true)
  store i32 %15, ptr %8, align 4
  %16 = load ptr, ptr %4, align 8
  %17 = load ptr, ptr %7, align 8
  %18 = call i32 @agstrfree(ptr noundef %16, ptr noundef %17)
  %19 = load i32, ptr %8, align 4
  ret i32 %19
}

; Function Attrs: nounwind uwtable
define internal i32 @ioput(ptr noundef %0, ptr noundef %1, ptr noundef %2) #0 {
  %4 = alloca ptr, align 8
  %5 = alloca ptr, align 8
  %6 = alloca ptr, align 8
  store ptr %0, ptr %4, align 8
  store ptr %1, ptr %5, align 8
  store ptr %2, ptr %6, align 8
  %7 = load ptr, ptr %4, align 8
  %8 = getelementptr inbounds %struct.Agraph_s, ptr %7, i32 0, i32 12
  %9 = load ptr, ptr %8, align 8
  %10 = getelementptr inbounds %struct.Agclos_s, ptr %9, i32 0, i32 0
  %11 = getelementptr inbounds %struct.Agdisc_s, ptr %10, i32 0, i32 1
  %12 = load ptr, ptr %11, align 8
  %13 = getelementptr inbounds %struct.Agiodisc_s, ptr %12, i32 0, i32 1
  %14 = load ptr, ptr %13, align 8
  %15 = load ptr, ptr %5, align 8
  %16 = load ptr, ptr %6, align 8
  %17 = call i32 %14(ptr noundef %15, ptr noundef %16)
  ret i32 %17
}

; Function Attrs: nounwind uwtable
define internal i32 @indent(ptr noundef %0, ptr noundef %1) #0 {
  %3 = alloca i32, align 4
  %4 = alloca ptr, align 8
  %5 = alloca ptr, align 8
  %6 = alloca i32, align 4
  store ptr %0, ptr %4, align 8
  store ptr %1, ptr %5, align 8
  %7 = load i32, ptr @Level, align 4
  store i32 %7, ptr %6, align 4
  br label %8

8:                                                ; preds = %18, %2
  %9 = load i32, ptr %6, align 4
  %10 = icmp sgt i32 %9, 0
  br i1 %10, label %11, label %21

11:                                               ; preds = %8
  %12 = load ptr, ptr %4, align 8
  %13 = load ptr, ptr %5, align 8
  %14 = call i32 @ioput(ptr noundef %12, ptr noundef %13, ptr noundef @.str.18)
  %15 = icmp eq i32 %14, -1
  br i1 %15, label %16, label %17

16:                                               ; preds = %11
  store i32 -1, ptr %3, align 4
  br label %22

17:                                               ; preds = %11
  br label %18

18:                                               ; preds = %17
  %19 = load i32, ptr %6, align 4
  %20 = add nsw i32 %19, -1
  store i32 %20, ptr %6, align 4
  br label %8

21:                                               ; preds = %8
  store i32 0, ptr %3, align 4
  br label %22

22:                                               ; preds = %21, %16
  %23 = load i32, ptr %3, align 4
  ret i32 %23
}

; Function Attrs: nounwind uwtable
define internal i32 @write_dict(ptr noundef %0, ptr noundef %1, ptr noundef %2, ptr noundef %3, i1 noundef zeroext %4) #0 {
  %6 = alloca i32, align 4
  %7 = alloca ptr, align 8
  %8 = alloca ptr, align 8
  %9 = alloca ptr, align 8
  %10 = alloca ptr, align 8
  %11 = alloca i8, align 1
  %12 = alloca i32, align 4
  %13 = alloca ptr, align 8
  %14 = alloca ptr, align 8
  %15 = alloca ptr, align 8
  store ptr %0, ptr %7, align 8
  store ptr %1, ptr %8, align 8
  store ptr %2, ptr %9, align 8
  store ptr %3, ptr %10, align 8
  %16 = zext i1 %4 to i8
  store i8 %16, ptr %11, align 1
  store i32 0, ptr %12, align 4
  %17 = load i8, ptr %11, align 1
  %18 = trunc i8 %17 to i1
  br i1 %18, label %22, label %19

19:                                               ; preds = %5
  %20 = load ptr, ptr %10, align 8
  %21 = call ptr @dtview(ptr noundef %20, ptr noundef null)
  store ptr %21, ptr %13, align 8
  br label %23

22:                                               ; preds = %5
  store ptr null, ptr %13, align 8
  br label %23

23:                                               ; preds = %22, %19
  %24 = load ptr, ptr %10, align 8
  %25 = getelementptr inbounds %struct._dt_s, ptr %24, i32 0, i32 0
  %26 = load ptr, ptr %25, align 8
  %27 = load ptr, ptr %10, align 8
  %28 = call ptr %26(ptr noundef %27, ptr noundef null, i32 noundef 128)
  store ptr %28, ptr %14, align 8
  br label %29

29:                                               ; preds = %145, %23
  %30 = load ptr, ptr %14, align 8
  %31 = icmp ne ptr %30, null
  br i1 %31, label %32, label %152

32:                                               ; preds = %29
  %33 = load ptr, ptr %14, align 8
  %34 = getelementptr inbounds %struct.Agsym_s, ptr %33, i32 0, i32 2
  %35 = load ptr, ptr %34, align 8
  %36 = icmp eq ptr %35, null
  br i1 %36, label %45, label %37

37:                                               ; preds = %32
  %38 = load ptr, ptr %14, align 8
  %39 = getelementptr inbounds %struct.Agsym_s, ptr %38, i32 0, i32 2
  %40 = load ptr, ptr %39, align 8
  %41 = getelementptr inbounds i8, ptr %40, i64 0
  %42 = load i8, ptr %41, align 1
  %43 = sext i8 %42 to i32
  %44 = icmp eq i32 %43, 0
  br i1 %44, label %45, label %81

45:                                               ; preds = %37, %32
  %46 = load ptr, ptr %14, align 8
  %47 = getelementptr inbounds %struct.Agsym_s, ptr %46, i32 0, i32 6
  %48 = load i8, ptr %47, align 2
  %49 = icmp ne i8 %48, 0
  br i1 %49, label %81, label %50

50:                                               ; preds = %45
  %51 = load ptr, ptr %13, align 8
  %52 = icmp eq ptr %51, null
  br i1 %52, label %53, label %54

53:                                               ; preds = %50
  br label %145

54:                                               ; preds = %50
  %55 = load ptr, ptr %13, align 8
  %56 = getelementptr inbounds %struct._dt_s, ptr %55, i32 0, i32 0
  %57 = load ptr, ptr %56, align 8
  %58 = load ptr, ptr %13, align 8
  %59 = load ptr, ptr %14, align 8
  %60 = call ptr %57(ptr noundef %58, ptr noundef %59, i32 noundef 4)
  store ptr %60, ptr %15, align 8
  %61 = load ptr, ptr %15, align 8
  %62 = getelementptr inbounds %struct.Agsym_s, ptr %61, i32 0, i32 2
  %63 = load ptr, ptr %62, align 8
  %64 = icmp eq ptr %63, null
  br i1 %64, label %73, label %65

65:                                               ; preds = %54
  %66 = load ptr, ptr %15, align 8
  %67 = getelementptr inbounds %struct.Agsym_s, ptr %66, i32 0, i32 2
  %68 = load ptr, ptr %67, align 8
  %69 = getelementptr inbounds i8, ptr %68, i64 0
  %70 = load i8, ptr %69, align 1
  %71 = sext i8 %70 to i32
  %72 = icmp eq i32 %71, 0
  br i1 %72, label %73, label %80

73:                                               ; preds = %65, %54
  %74 = load ptr, ptr %15, align 8
  %75 = getelementptr inbounds %struct.Agsym_s, ptr %74, i32 0, i32 6
  %76 = load i8, ptr %75, align 2
  %77 = zext i8 %76 to i32
  %78 = icmp ne i32 %77, 0
  br i1 %78, label %79, label %80

79:                                               ; preds = %73
  br label %145

80:                                               ; preds = %73, %65
  br label %81

81:                                               ; preds = %80, %45, %37
  %82 = load i32, ptr %12, align 4
  %83 = add nsw i32 %82, 1
  store i32 %83, ptr %12, align 4
  %84 = icmp eq i32 %82, 0
  br i1 %84, label %85, label %107

85:                                               ; preds = %81
  %86 = load ptr, ptr %7, align 8
  %87 = load ptr, ptr %8, align 8
  %88 = call i32 @indent(ptr noundef %86, ptr noundef %87)
  %89 = icmp eq i32 %88, -1
  br i1 %89, label %90, label %91

90:                                               ; preds = %85
  store i32 -1, ptr %6, align 4
  br label %188

91:                                               ; preds = %85
  %92 = load ptr, ptr %7, align 8
  %93 = load ptr, ptr %8, align 8
  %94 = load ptr, ptr %9, align 8
  %95 = call i32 @ioput(ptr noundef %92, ptr noundef %93, ptr noundef %94)
  %96 = icmp eq i32 %95, -1
  br i1 %96, label %97, label %98

97:                                               ; preds = %91
  store i32 -1, ptr %6, align 4
  br label %188

98:                                               ; preds = %91
  %99 = load ptr, ptr %7, align 8
  %100 = load ptr, ptr %8, align 8
  %101 = call i32 @ioput(ptr noundef %99, ptr noundef %100, ptr noundef @.str.19)
  %102 = icmp eq i32 %101, -1
  br i1 %102, label %103, label %104

103:                                              ; preds = %98
  store i32 -1, ptr %6, align 4
  br label %188

104:                                              ; preds = %98
  %105 = load i32, ptr @Level, align 4
  %106 = add nsw i32 %105, 1
  store i32 %106, ptr @Level, align 4
  br label %120

107:                                              ; preds = %81
  %108 = load ptr, ptr %7, align 8
  %109 = load ptr, ptr %8, align 8
  %110 = call i32 @ioput(ptr noundef %108, ptr noundef %109, ptr noundef @.str.20)
  %111 = icmp eq i32 %110, -1
  br i1 %111, label %112, label %113

112:                                              ; preds = %107
  store i32 -1, ptr %6, align 4
  br label %188

113:                                              ; preds = %107
  %114 = load ptr, ptr %7, align 8
  %115 = load ptr, ptr %8, align 8
  %116 = call i32 @indent(ptr noundef %114, ptr noundef %115)
  %117 = icmp eq i32 %116, -1
  br i1 %117, label %118, label %119

118:                                              ; preds = %113
  store i32 -1, ptr %6, align 4
  br label %188

119:                                              ; preds = %113
  br label %120

120:                                              ; preds = %119, %104
  %121 = load ptr, ptr %7, align 8
  %122 = load ptr, ptr %8, align 8
  %123 = load ptr, ptr %14, align 8
  %124 = getelementptr inbounds %struct.Agsym_s, ptr %123, i32 0, i32 1
  %125 = load ptr, ptr %124, align 8
  %126 = call i32 @write_canonstr(ptr noundef %121, ptr noundef %122, ptr noundef %125)
  %127 = icmp eq i32 %126, -1
  br i1 %127, label %128, label %129

128:                                              ; preds = %120
  store i32 -1, ptr %6, align 4
  br label %188

129:                                              ; preds = %120
  %130 = load ptr, ptr %7, align 8
  %131 = load ptr, ptr %8, align 8
  %132 = call i32 @ioput(ptr noundef %130, ptr noundef %131, ptr noundef @.str.21)
  %133 = icmp eq i32 %132, -1
  br i1 %133, label %134, label %135

134:                                              ; preds = %129
  store i32 -1, ptr %6, align 4
  br label %188

135:                                              ; preds = %129
  %136 = load ptr, ptr %7, align 8
  %137 = load ptr, ptr %8, align 8
  %138 = load ptr, ptr %14, align 8
  %139 = getelementptr inbounds %struct.Agsym_s, ptr %138, i32 0, i32 2
  %140 = load ptr, ptr %139, align 8
  %141 = call i32 @write_canonstr(ptr noundef %136, ptr noundef %137, ptr noundef %140)
  %142 = icmp eq i32 %141, -1
  br i1 %142, label %143, label %144

143:                                              ; preds = %135
  store i32 -1, ptr %6, align 4
  br label %188

144:                                              ; preds = %135
  br label %145

145:                                              ; preds = %144, %79, %53
  %146 = load ptr, ptr %10, align 8
  %147 = getelementptr inbounds %struct._dt_s, ptr %146, i32 0, i32 0
  %148 = load ptr, ptr %147, align 8
  %149 = load ptr, ptr %10, align 8
  %150 = load ptr, ptr %14, align 8
  %151 = call ptr %148(ptr noundef %149, ptr noundef %150, i32 noundef 8)
  store ptr %151, ptr %14, align 8
  br label %29

152:                                              ; preds = %29
  %153 = load i32, ptr %12, align 4
  %154 = icmp sgt i32 %153, 0
  br i1 %154, label %155, label %180

155:                                              ; preds = %152
  %156 = load i32, ptr @Level, align 4
  %157 = add nsw i32 %156, -1
  store i32 %157, ptr @Level, align 4
  %158 = load i32, ptr %12, align 4
  %159 = icmp sgt i32 %158, 1
  br i1 %159, label %160, label %173

160:                                              ; preds = %155
  %161 = load ptr, ptr %7, align 8
  %162 = load ptr, ptr %8, align 8
  %163 = call i32 @ioput(ptr noundef %161, ptr noundef %162, ptr noundef @.str.22)
  %164 = icmp eq i32 %163, -1
  br i1 %164, label %165, label %166

165:                                              ; preds = %160
  store i32 -1, ptr %6, align 4
  br label %188

166:                                              ; preds = %160
  %167 = load ptr, ptr %7, align 8
  %168 = load ptr, ptr %8, align 8
  %169 = call i32 @indent(ptr noundef %167, ptr noundef %168)
  %170 = icmp eq i32 %169, -1
  br i1 %170, label %171, label %172

171:                                              ; preds = %166
  store i32 -1, ptr %6, align 4
  br label %188

172:                                              ; preds = %166
  br label %173

173:                                              ; preds = %172, %155
  %174 = load ptr, ptr %7, align 8
  %175 = load ptr, ptr %8, align 8
  %176 = call i32 @ioput(ptr noundef %174, ptr noundef %175, ptr noundef @.str.23)
  %177 = icmp eq i32 %176, -1
  br i1 %177, label %178, label %179

178:                                              ; preds = %173
  store i32 -1, ptr %6, align 4
  br label %188

179:                                              ; preds = %173
  br label %180

180:                                              ; preds = %179, %152
  %181 = load i8, ptr %11, align 1
  %182 = trunc i8 %181 to i1
  br i1 %182, label %187, label %183

183:                                              ; preds = %180
  %184 = load ptr, ptr %10, align 8
  %185 = load ptr, ptr %13, align 8
  %186 = call ptr @dtview(ptr noundef %184, ptr noundef %185)
  br label %187

187:                                              ; preds = %183, %180
  store i32 0, ptr %6, align 4
  br label %188

188:                                              ; preds = %187, %178, %171, %165, %143, %134, %128, %118, %112, %103, %97, %90
  %189 = load i32, ptr %6, align 4
  ret i32 %189
}