; Function Attrs: nounwind uwtable
define internal fastcc range(i32 -1, 1) i32 @write_dict(ptr noundef %0, ptr noundef %1, ptr noundef %2, ptr noundef %3, i1 noundef zeroext %4) unnamed_addr #0 {
  br i1 %4, label %8, label %6

6:                                                ; preds = %5
  %7 = tail call ptr @dtview(ptr noundef %3, ptr noundef null) #9
  br label %8

8:                                                ; preds = %5, %6
  %.050 = phi ptr [ %7, %6 ], [ null, %5 ]
  %9 = load ptr, ptr %3, align 8
  %10 = tail call ptr %9(ptr noundef nonnull %3, ptr noundef null, i32 noundef 128) #9
  %.not85 = icmp eq ptr %10, null
  br i1 %.not85, label %._crit_edge.thread, label %.lr.ph

.lr.ph:                                           ; preds = %8
  %11 = icmp eq ptr %.050, null
  %12 = getelementptr i8, ptr %0, i64 128
  br label %13

13:                                               ; preds = %.lr.ph, %93
  %.04987 = phi ptr [ %10, %.lr.ph ], [ %95, %93 ]
  %.05186 = phi i32 [ 0, %.lr.ph ], [ %.1, %93 ]
  %14 = getelementptr inbounds nuw i8, ptr %.04987, i64 24
  %15 = load ptr, ptr %14, align 8
  %16 = icmp eq ptr %15, null
  br i1 %16, label %20, label %17

17:                                               ; preds = %13
  %18 = load i8, ptr %15, align 1
  %19 = icmp eq i8 %18, 0
  br i1 %19, label %20, label %36

20:                                               ; preds = %17, %13
  %21 = getelementptr inbounds nuw i8, ptr %.04987, i64 38
  %22 = load i8, ptr %21, align 2
  %.not55 = icmp eq i8 %22, 0
  br i1 %.not55, label %23, label %36

23:                                               ; preds = %20
  br i1 %11, label %93, label %24

24:                                               ; preds = %23
  %25 = load ptr, ptr %.050, align 8
  %26 = tail call ptr %25(ptr noundef nonnull %.050, ptr noundef nonnull %.04987, i32 noundef 4) #9
  %27 = getelementptr inbounds nuw i8, ptr %26, i64 24
  %28 = load ptr, ptr %27, align 8
  %29 = icmp eq ptr %28, null
  br i1 %29, label %33, label %30

30:                                               ; preds = %24
  %31 = load i8, ptr %28, align 1
  %32 = icmp eq i8 %31, 0
  br i1 %32, label %33, label %36

33:                                               ; preds = %30, %24
  %34 = getelementptr inbounds nuw i8, ptr %26, i64 38
  %35 = load i8, ptr %34, align 2
  %.not56 = icmp eq i8 %35, 0
  br i1 %.not56, label %36, label %93

36:                                               ; preds = %30, %33, %20, %17
  %37 = add nsw i32 %.05186, 1
  %38 = icmp eq i32 %.05186, 0
  br i1 %38, label %39, label %61

39:                                               ; preds = %36
  %40 = load i32, ptr @Level, align 4
  %41 = icmp sgt i32 %40, 0
  br i1 %41, label %.lr.ph.i, label %.loopexit

42:                                               ; preds = %.lr.ph.i
  %43 = add nsw i32 %.05.i, -1
  %44 = icmp sgt i32 %.05.i, 1
  br i1 %44, label %.lr.ph.i, label %.loopexit

.lr.ph.i:                                         ; preds = %39, %42
  %.05.i = phi i32 [ %43, %42 ], [ %40, %39 ]
  %.val.i = load ptr, ptr %12, align 8
  %45 = getelementptr i8, ptr %.val.i, i64 8
  %.val.val.i = load ptr, ptr %45, align 8
  %46 = getelementptr i8, ptr %.val.val.i, i64 8
  %.val.val.val.i = load ptr, ptr %46, align 8
  %47 = tail call i32 %.val.val.val.i(ptr noundef %1, ptr noundef nonnull @.str.18) #9
  %48 = icmp eq i32 %47, -1
  br i1 %48, label %indent.exit, label %42

.loopexit:                                        ; preds = %42, %39
  %.val61 = load ptr, ptr %12, align 8
  %49 = getelementptr i8, ptr %.val61, i64 8
  %.val61.val = load ptr, ptr %49, align 8
  %50 = getelementptr i8, ptr %.val61.val, i64 8
  %.val61.val.val = load ptr, ptr %50, align 8
  %51 = tail call i32 %.val61.val.val(ptr noundef %1, ptr noundef %2) #9
  %52 = icmp eq i32 %51, -1
  br i1 %52, label %indent.exit, label %53

53:                                               ; preds = %.loopexit
  %.val60 = load ptr, ptr %12, align 8
  %54 = getelementptr i8, ptr %.val60, i64 8
  %.val60.val = load ptr, ptr %54, align 8
  %55 = getelementptr i8, ptr %.val60.val, i64 8
  %.val60.val.val = load ptr, ptr %55, align 8
  %56 = tail call i32 %.val60.val.val(ptr noundef %1, ptr noundef nonnull @.str.19) #9
  %57 = icmp eq i32 %56, -1
  br i1 %57, label %indent.exit, label %58

58:                                               ; preds = %53
  %59 = load i32, ptr @Level, align 4
  %60 = add nsw i32 %59, 1
  store i32 %60, ptr @Level, align 4
  br label %indent.exit68.thread

61:                                               ; preds = %36
  %.val59 = load ptr, ptr %12, align 8
  %62 = getelementptr i8, ptr %.val59, i64 8
  %.val59.val = load ptr, ptr %62, align 8
  %63 = getelementptr i8, ptr %.val59.val, i64 8
  %.val59.val.val = load ptr, ptr %63, align 8
  %64 = tail call i32 %.val59.val.val(ptr noundef %1, ptr noundef nonnull @.str.20) #9
  %65 = icmp eq i32 %64, -1
  br i1 %65, label %indent.exit, label %66

66:                                               ; preds = %61
  %67 = load i32, ptr @Level, align 4
  %68 = icmp sgt i32 %67, 0
  br i1 %68, label %.lr.ph.i63, label %indent.exit68.thread

69:                                               ; preds = %.lr.ph.i63
  %70 = add nsw i32 %.05.i64, -1
  %71 = icmp sgt i32 %.05.i64, 1
  br i1 %71, label %.lr.ph.i63, label %indent.exit68.thread

.lr.ph.i63:                                       ; preds = %66, %69
  %.05.i64 = phi i32 [ %70, %69 ], [ %67, %66 ]
  %.val.i65 = load ptr, ptr %12, align 8
  %72 = getelementptr i8, ptr %.val.i65, i64 8
  %.val.val.i66 = load ptr, ptr %72, align 8
  %73 = getelementptr i8, ptr %.val.val.i66, i64 8
  %.val.val.val.i67 = load ptr, ptr %73, align 8
  %74 = tail call i32 %.val.val.val.i67(ptr noundef %1, ptr noundef nonnull @.str.18) #9
  %75 = icmp eq i32 %74, -1
  br i1 %75, label %indent.exit, label %69

indent.exit68.thread:                             ; preds = %69, %66, %58
  %76 = getelementptr inbounds nuw i8, ptr %.04987, i64 16
  %77 = load ptr, ptr %76, align 8
  %78 = tail call ptr @agstrdup(ptr noundef nonnull %0, ptr noundef %77) #9
  %79 = tail call fastcc i32 @_write_canonstr(ptr noundef nonnull %0, ptr noundef %1, ptr noundef %78, i1 noundef zeroext true)
  %80 = tail call i32 @agstrfree(ptr noundef nonnull %0, ptr noundef %78) #9
  %81 = icmp eq i32 %79, -1
  br i1 %81, label %indent.exit, label %82

82:                                               ; preds = %indent.exit68.thread
  %.val58 = load ptr, ptr %12, align 8
  %83 = getelementptr i8, ptr %.val58, i64 8
  %.val58.val = load ptr, ptr %83, align 8
  %84 = getelementptr i8, ptr %.val58.val, i64 8
  %.val58.val.val = load ptr, ptr %84, align 8
  %85 = tail call i32 %.val58.val.val(ptr noundef %1, ptr noundef nonnull @.str.21) #9
  %86 = icmp eq i32 %85, -1
  br i1 %86, label %indent.exit, label %87

87:                                               ; preds = %82
  %88 = load ptr, ptr %14, align 8
  %89 = tail call ptr @agstrdup(ptr noundef nonnull %0, ptr noundef %88) #9
  %90 = tail call fastcc i32 @_write_canonstr(ptr noundef nonnull %0, ptr noundef %1, ptr noundef %89, i1 noundef zeroext true)
  %91 = tail call i32 @agstrfree(ptr noundef nonnull %0, ptr noundef %89) #9
  %92 = icmp eq i32 %90, -1
  br i1 %92, label %indent.exit, label %93

93:                                               ; preds = %87, %33, %23
  %.1 = phi i32 [ %37, %87 ], [ %.05186, %23 ], [ %.05186, %33 ]
  %94 = load ptr, ptr %3, align 8
  %95 = tail call ptr %94(ptr noundef nonnull %3, ptr noundef nonnull %.04987, i32 noundef 8) #9
  %.not = icmp eq ptr %95, null
  br i1 %.not, label %._crit_edge, label %13

._crit_edge:                                      ; preds = %93
  %96 = icmp sgt i32 %.1, 0
  br i1 %96, label %97, label %._crit_edge.thread

97:                                               ; preds = %._crit_edge
  %98 = load i32, ptr @Level, align 4
  %99 = add nsw i32 %98, -1
  store i32 %99, ptr @Level, align 4
  %.not54 = icmp eq i32 %.1, 1
  br i1 %.not54, label %indent.exit75.thread, label %100

100:                                              ; preds = %97
  %101 = getelementptr i8, ptr %0, i64 128
  %.val57 = load ptr, ptr %101, align 8
  %102 = getelementptr i8, ptr %.val57, i64 8
  %.val57.val = load ptr, ptr %102, align 8
  %103 = getelementptr i8, ptr %.val57.val, i64 8
  %.val57.val.val = load ptr, ptr %103, align 8
  %104 = tail call i32 %.val57.val.val(ptr noundef %1, ptr noundef nonnull @.str.22) #9
  %105 = icmp eq i32 %104, -1
  br i1 %105, label %indent.exit, label %106

106:                                              ; preds = %100
  %107 = load i32, ptr @Level, align 4
  %108 = icmp sgt i32 %107, 0
  br i1 %108, label %.lr.ph.i70, label %indent.exit75.thread

109:                                              ; preds = %.lr.ph.i70
  %110 = add nsw i32 %.05.i71, -1
  %111 = icmp sgt i32 %.05.i71, 1
  br i1 %111, label %.lr.ph.i70, label %indent.exit75.thread

.lr.ph.i70:                                       ; preds = %106, %109
  %.05.i71 = phi i32 [ %110, %109 ], [ %107, %106 ]
  %.val.i72 = load ptr, ptr %101, align 8
  %112 = getelementptr i8, ptr %.val.i72, i64 8
  %.val.val.i73 = load ptr, ptr %112, align 8
  %113 = getelementptr i8, ptr %.val.val.i73, i64 8
  %.val.val.val.i74 = load ptr, ptr %113, align 8
  %114 = tail call i32 %.val.val.val.i74(ptr noundef %1, ptr noundef nonnull @.str.18) #9
  %115 = icmp eq i32 %114, -1
  br i1 %115, label %indent.exit, label %109

indent.exit75.thread:                             ; preds = %109, %106, %97
  %116 = getelementptr i8, ptr %0, i64 128
  %.val = load ptr, ptr %116, align 8
  %117 = getelementptr i8, ptr %.val, i64 8
  %.val.val = load ptr, ptr %117, align 8
  %118 = getelementptr i8, ptr %.val.val, i64 8
  %.val.val.val = load ptr, ptr %118, align 8
  %119 = tail call i32 %.val.val.val(ptr noundef %1, ptr noundef nonnull @.str.23) #9
  %120 = icmp eq i32 %119, -1
  %brmerge = or i1 %4, %120
  %.mux = sext i1 %120 to i32
  br i1 %brmerge, label %indent.exit, label %121

._crit_edge.thread:                               ; preds = %8, %._crit_edge
  br i1 %4, label %indent.exit, label %121

121:                                              ; preds = %indent.exit75.thread, %._crit_edge.thread
  %122 = tail call ptr @dtview(ptr noundef nonnull %3, ptr noundef %.050) #9
  br label %indent.exit

indent.exit:                                      ; preds = %87, %82, %indent.exit68.thread, %61, %53, %.loopexit, %.lr.ph.i63, %.lr.ph.i, %.lr.ph.i70, %indent.exit75.thread, %._crit_edge.thread, %121, %100
  %.0 = phi i32 [ -1, %100 ], [ %.mux, %indent.exit75.thread ], [ 0, %121 ], [ 0, %._crit_edge.thread ], [ -1, %.lr.ph.i70 ], [ -1, %.lr.ph.i ], [ -1, %.lr.ph.i63 ], [ -1, %.loopexit ], [ -1, %53 ], [ -1, %61 ], [ -1, %indent.exit68.thread ], [ -1, %82 ], [ -1, %87 ]
  ret i32 %.0
}